target datalayout = "e-m:e-p270:32:32-p271:32:32-p272:64:64-i64:64-i128:128-f80:128-n8:16:32:64-S128"
target triple = "x86_64-pc-linux-gnu"

; Function Attrs: nounwind uwtable
define internal i32 @GradientPredictor_C(i8 noundef zeroext %0, i8 noundef zeroext %1, i8 noundef zeroext %2) #0 {
  %4 = alloca i8, align 1
  %5 = alloca i8, align 1
  %6 = alloca i8, align 1
  %7 = alloca i32, align 4
  store i8 %0, ptr %4, align 1
  store i8 %1, ptr %5, align 1
  store i8 %2, ptr %6, align 1
  %8 = load i8, ptr %4, align 1
  %9 = zext i8 %8 to i32
  %10 = load i8, ptr %5, align 1
  %11 = zext i8 %10 to i32
  %12 = add nsw i32 %9, %11
  %13 = load i8, ptr %6, align 1
  %14 = zext i8 %13 to i32
  %15 = sub nsw i32 %12, %14
  store i32 %15, ptr %7, align 4
  %16 = load i32, ptr %7, align 4
  %17 = and i32 %16, -256
  %18 = icmp eq i32 %17, 0
  br i1 %18, label %19, label %21

19:                                               ; preds = %3
  %20 = load i32, ptr %7, align 4
  br label %25

21:                                               ; preds = %3
  %22 = load i32, ptr %7, align 4
  %23 = icmp slt i32 %22, 0
  %24 = select i1 %23, i32 0, i32 255
  br label %25

25:                                               ; preds = %21, %19
  %26 = phi i32 [ %20, %19 ], [ %24, %21 ]
  ret i32 %26
}

; Function Attrs: nounwind uwtable
define internal void @HorizontalUnfilter_C(ptr noundef %0, ptr noundef %1, ptr noundef %2, i32 noundef %3) #0 {
  %5 = alloca ptr, align 8
  %6 = alloca ptr, align 8
  %7 = alloca ptr, align 8
  %8 = alloca i32, align 4
  %9 = alloca i8, align 1
  %10 = alloca i32, align 4
  store ptr %0, ptr %5, align 8
  store ptr %1, ptr %6, align 8
  store ptr %2, ptr %7, align 8
  store i32 %3, ptr %8, align 4
  %11 = load ptr, ptr %5, align 8
  %12 = icmp eq ptr %11, null
  br i1 %12, label %13, label %14

13:                                               ; preds = %4
  br label %19

14:                                               ; preds = %4
  %15 = load ptr, ptr %5, align 8
  %16 = getelementptr inbounds i8, ptr %15, i64 0
  %17 = load i8, ptr %16, align 1
  %18 = zext i8 %17 to i32
  br label %19

19:                                               ; preds = %14, %13
  %20 = phi i32 [ 0, %13 ], [ %18, %14 ]
  %21 = trunc i32 %20 to i8
  store i8 %21, ptr %9, align 1
  store i32 0, ptr %10, align 4
  br label %22

22:                                               ; preds = %46, %19
  %23 = load i32, ptr %10, align 4
  %24 = load i32, ptr %8, align 4
  %25 = icmp slt i32 %23, %24
  br i1 %25, label %26, label %49

26:                                               ; preds = %22
  %27 = load i8, ptr %9, align 1
  %28 = zext i8 %27 to i32
  %29 = load ptr, ptr %6, align 8
  %30 = load i32, ptr %10, align 4
  %31 = sext i32 %30 to i64
  %32 = getelementptr inbounds i8, ptr %29, i64 %31
  %33 = load i8, ptr %32, align 1
  %34 = zext i8 %33 to i32
  %35 = add nsw i32 %28, %34
  %36 = trunc i32 %35 to i8
  %37 = load ptr, ptr %7, align 8
  %38 = load i32, ptr %10, align 4
  %39 = sext i32 %38 to i64
  %40 = getelementptr inbounds i8, ptr %37, i64 %39
  store i8 %36, ptr %40, align 1
  %41 = load ptr, ptr %7, align 8
  %42 = load i32, ptr %10, align 4
  %43 = sext i32 %42 to i64
  %44 = getelementptr inbounds i8, ptr %41, i64 %43
  %45 = load i8, ptr %44, align 1
  store i8 %45, ptr %9, align 1
  br label %46

46:                                               ; preds = %26
  %47 = load i32, ptr %10, align 4
  %48 = add nsw i32 %47, 1
  store i32 %48, ptr %10, align 4
  br label %22, !llvm.loop !4

49:                                               ; preds = %22
  ret void
}

; Function Attrs: nounwind uwtable
define internal void @GradientUnfilter_C(ptr noundef %0, ptr noundef %1, ptr noundef %2, i32 noundef %3) #0 {
  %5 = alloca ptr, align 8
  %6 = alloca ptr, align 8
  %7 = alloca ptr, align 8
  %8 = alloca i32, align 4
  %9 = alloca i8, align 1
  %10 = alloca i8, align 1
  %11 = alloca i8, align 1
  %12 = alloca i32, align 4
  store ptr %0, ptr %5, align 8
  store ptr %1, ptr %6, align 8
  store ptr %2, ptr %7, align 8
  store i32 %3, ptr %8, align 4
  %13 = load ptr, ptr %5, align 8
  %14 = icmp eq ptr %13, null
  br i1 %14, label %15, label %19

15:                                               ; preds = %4
  %16 = load ptr, ptr %6, align 8
  %17 = load ptr, ptr %7, align 8
  %18 = load i32, ptr %8, align 4
  call void @HorizontalUnfilter_C(ptr noundef null, ptr noundef %16, ptr noundef %17, i32 noundef %18)
  br label %57

19:                                               ; preds = %4
  %20 = load ptr, ptr %5, align 8
  %21 = getelementptr inbounds i8, ptr %20, i64 0
  %22 = load i8, ptr %21, align 1
  store i8 %22, ptr %9, align 1
  %23 = load i8, ptr %9, align 1
  store i8 %23, ptr %10, align 1
  %24 = load i8, ptr %9, align 1
  store i8 %24, ptr %11, align 1
  store i32 0, ptr %12, align 4
  br label %25

25:                                               ; preds = %53, %19
  %26 = load i32, ptr %12, align 4
  %27 = load i32, ptr %8, align 4
  %28 = icmp slt i32 %26, %27
  br i1 %28, label %29, label %56

29:                                               ; preds = %25
  %30 = load ptr, ptr %5, align 8
  %31 = load i32, ptr %12, align 4
  %32 = sext i32 %31 to i64
  %33 = getelementptr inbounds i8, ptr %30, i64 %32
  %34 = load i8, ptr %33, align 1
  store i8 %34, ptr %9, align 1
  %35 = load ptr, ptr %6, align 8
  %36 = load i32, ptr %12, align 4
  %37 = sext i32 %36 to i64
  %38 = getelementptr inbounds i8, ptr %35, i64 %37
  %39 = load i8, ptr %38, align 1
  %40 = zext i8 %39 to i32
  %41 = load i8, ptr %11, align 1
  %42 = load i8, ptr %9, align 1
  %43 = load i8, ptr %10, align 1
  %44 = call i32 @GradientPredictor_C(i8 noundef zeroext %41, i8 noundef zeroext %42, i8 noundef zeroext %43)
  %45 = add nsw i32 %40, %44
  %46 = trunc i32 %45 to i8
  store i8 %46, ptr %11, align 1
  %47 = load i8, ptr %9, align 1
  store i8 %47, ptr %10, align 1
  %48 = load i8, ptr %11, align 1
  %49 = load ptr, ptr %7, align 8
  %50 = load i32, ptr %12, align 4
  %51 = sext i32 %50 to i64
  %52 = getelementptr inbounds i8, ptr %49, i64 %51
  store i8 %48, ptr %52, align 1
  br label %53

53:                                               ; preds = %29
  %54 = load i32, ptr %12, align 4
  %55 = add nsw i32 %54, 1
  store i32 %55, ptr %12, align 4
  br label %25, !llvm.loop !7

56:                                               ; preds = %25
  br label %57

57:                                               ; preds = %56, %15
  ret void
}